target datalayout = "e-m:e-p270:32:32-p271:32:32-p272:64:64-i64:64-i128:128-f80:128-n8:16:32:64-S128"
target triple = "x86_64-pc-linux-gnu"

@_ZL13bts_leaveFunc = internal global ptr @_Z25btLeaveProfileZoneDefaultv, align 8

; Function Attrs: mustprogress uwtable
define dso_local void @_Z18btLeaveProfileZonev() #2 {
  %1 = load ptr, ptr @_ZL13bts_leaveFunc, align 8, !tbaa !28
  call void %1()
  ret void
}

; Function Attrs: mustprogress nounwind uwtable
define dso_local void @_ZN14CProfileSampleD2Ev(ptr noundef nonnull align 1 dereferenceable(1) %0) unnamed_addr #1 align 2 personality ptr @__gxx_personality_v0 {
  %2 = alloca ptr, align 8
  store ptr %0, ptr %2, align 8, !tbaa !29
  invoke void @_Z18btLeaveProfileZonev()
          to label %3 unwind label %4

3:                                                ; preds = %1
  ret void

4:                                                ; preds = %1
  %5 = landingpad { ptr, i32 }
          catch ptr null
  %6 = extractvalue { ptr, i32 } %5, 0
  call void @__clang_call_terminate(ptr %6) #13
  unreachable
}