; Function Attrs: mustprogress nounwind uwtable
define dso_local void @_ZN14CProfileSampleD2Ev(ptr nonnull readnone align 1 captures(none) %0) unnamed_addr #3 align 2 personality ptr @__gxx_personality_v0 {
  %2 = load ptr, ptr @_ZL13bts_leaveFunc, align 8, !tbaa !21
  invoke void %2()
          to label %_Z18btLeaveProfileZonev.exit unwind label %3

_Z18btLeaveProfileZonev.exit:                     ; preds = %1
  ret void

3:                                                ; preds = %1
  %4 = landingpad { ptr, i32 }
          catch ptr null
  %5 = extractvalue { ptr, i32 } %4, 0
  tail call void @__clang_call_terminate(ptr %5) #19
  unreachable
}